target datalayout = "e-m:e-p270:32:32-p271:32:32-p272:64:64-i64:64-i128:128-f80:128-n8:16:32:64-S128"
target triple = "x86_64-pc-linux-gnu"

%struct._ir_strtab = type { ptr, i32, i32, i32, i32, ptr, i32, i32 }

; Function Attrs: nounwind uwtable
define hidden void @ir_strtab_free(ptr noundef %0) #0 {
  %2 = alloca ptr, align 8
  %3 = alloca i32, align 4
  %4 = alloca ptr, align 8
  store ptr %0, ptr %2, align 8, !tbaa !4
  call void @llvm.lifetime.start.p0(i64 4, ptr %3) #10
  %5 = load ptr, ptr %2, align 8, !tbaa !4
  %6 = getelementptr inbounds nuw %struct._ir_strtab, ptr %5, i32 0, i32 1
  %7 = load i32, ptr %6, align 8, !tbaa !15
  %8 = sub nsw i32 0, %7
  store i32 %8, ptr %3, align 4, !tbaa !9
  call void @llvm.lifetime.start.p0(i64 8, ptr %4) #10
  %9 = load ptr, ptr %2, align 8, !tbaa !4
  %10 = getelementptr inbounds nuw %struct._ir_strtab, ptr %9, i32 0, i32 0
  %11 = load ptr, ptr %10, align 8, !tbaa !13
  %12 = load i32, ptr %3, align 4, !tbaa !9
  %13 = zext i32 %12 to i64
  %14 = mul i64 %13, 4
  %15 = sub i64 0, %14
  %16 = getelementptr inbounds i8, ptr %11, i64 %15
  store ptr %16, ptr %4, align 8, !tbaa !11
  %17 = load ptr, ptr %4, align 8, !tbaa !11
  call void @_efree(ptr noundef %17)
  %18 = load ptr, ptr %2, align 8, !tbaa !4
  %19 = getelementptr inbounds nuw %struct._ir_strtab, ptr %18, i32 0, i32 0
  store ptr null, ptr %19, align 8, !tbaa !13
  %20 = load ptr, ptr %2, align 8, !tbaa !4
  %21 = getelementptr inbounds nuw %struct._ir_strtab, ptr %20, i32 0, i32 5
  %22 = load ptr, ptr %21, align 8, !tbaa !19
  %23 = icmp ne ptr %22, null
  br i1 %23, label %24, label %30

24:                                               ; preds = %1
  %25 = load ptr, ptr %2, align 8, !tbaa !4
  %26 = getelementptr inbounds nuw %struct._ir_strtab, ptr %25, i32 0, i32 5
  %27 = load ptr, ptr %26, align 8, !tbaa !19
  call void @_efree(ptr noundef %27)
  %28 = load ptr, ptr %2, align 8, !tbaa !4
  %29 = getelementptr inbounds nuw %struct._ir_strtab, ptr %28, i32 0, i32 5
  store ptr null, ptr %29, align 8, !tbaa !19
  br label %30

30:                                               ; preds = %24, %1
  call void @llvm.lifetime.end.p0(i64 8, ptr %4) #10
  call void @llvm.lifetime.end.p0(i64 4, ptr %3) #10
  ret void
}