; Function Attrs: nounwind uwtable
define hidden void @ir_strtab_free(ptr noundef captures(none) %0) local_unnamed_addr #0 {
  %2 = getelementptr inbounds nuw i8, ptr %0, i64 8
  %3 = load i32, ptr %2, align 8, !tbaa !11
  %4 = sub nsw i32 0, %3
  %5 = load ptr, ptr %0, align 8, !tbaa !4
  %6 = zext i32 %4 to i64
  %.neg = mul nsw i64 %6, -4
  %7 = getelementptr inbounds i8, ptr %5, i64 %.neg
  tail call void @_efree(ptr noundef %7) #12
  store ptr null, ptr %0, align 8, !tbaa !4
  %8 = getelementptr inbounds nuw i8, ptr %0, i64 24
  %9 = load ptr, ptr %8, align 8, !tbaa !15
  %.not = icmp eq ptr %9, null
  br i1 %.not, label %11, label %10

10:                                               ; preds = %1
  tail call void @_efree(ptr noundef nonnull %9) #12
  store ptr null, ptr %8, align 8, !tbaa !15
  br label %11

11:                                               ; preds = %10, %1
  ret void
}